target datalayout = "e-m:e-p270:32:32-p271:32:32-p272:64:64-i64:64-i128:128-f80:128-n8:16:32:64-S128"
target triple = "x86_64-pc-linux-gnu"

%"class.icu_77::CollationKey" = type { %"class.icu_77::UObject", i32, i32, %"union.icu_77::CollationKey::StackBufferOrFields" }
%"class.icu_77::UObject" = type { ptr }
%"union.icu_77::CollationKey::StackBufferOrFields" = type { %struct.anon, [16 x i8] }
%struct.anon = type { ptr, i32 }

; Function Attrs: mustprogress nounwind uwtable
define linkonce_odr noundef ptr @_ZNK6icu_7712CollationKey8getBytesEv(ptr noundef nonnull align 8 dereferenceable(48) %0) #0 comdat align 2 {
  %2 = alloca ptr, align 8
  store ptr %0, ptr %2, align 8, !tbaa !3
  %3 = load ptr, ptr %2, align 8
  %4 = getelementptr inbounds nuw %"class.icu_77::CollationKey", ptr %3, i32 0, i32 1
  %5 = load i32, ptr %4, align 8, !tbaa !10
  %6 = icmp sge i32 %5, 0
  br i1 %6, label %7, label %10

7:                                                ; preds = %1
  %8 = getelementptr inbounds nuw %"class.icu_77::CollationKey", ptr %3, i32 0, i32 3
  %9 = getelementptr inbounds [32 x i8], ptr %8, i64 0, i64 0
  br label %14

10:                                               ; preds = %1
  %11 = getelementptr inbounds nuw %"class.icu_77::CollationKey", ptr %3, i32 0, i32 3
  %12 = getelementptr inbounds nuw %struct.anon, ptr %11, i32 0, i32 0
  %13 = load ptr, ptr %12, align 8, !tbaa !20
  br label %14

14:                                               ; preds = %10, %7
  %15 = phi ptr [ %9, %7 ], [ %13, %10 ]
  ret ptr %15
}

; Function Attrs: mustprogress nounwind uwtable
define linkonce_odr noundef ptr @_ZN6icu_7712CollationKey8getBytesEv(ptr noundef nonnull align 8 dereferenceable(48) %0) #0 comdat align 2 {
  %2 = alloca ptr, align 8
  store ptr %0, ptr %2, align 8, !tbaa !3
  %3 = load ptr, ptr %2, align 8
  %4 = getelementptr inbounds nuw %"class.icu_77::CollationKey", ptr %3, i32 0, i32 1
  %5 = load i32, ptr %4, align 8, !tbaa !10
  %6 = icmp sge i32 %5, 0
  br i1 %6, label %7, label %10

7:                                                ; preds = %1
  %8 = getelementptr inbounds nuw %"class.icu_77::CollationKey", ptr %3, i32 0, i32 3
  %9 = getelementptr inbounds [32 x i8], ptr %8, i64 0, i64 0
  br label %14

10:                                               ; preds = %1
  %11 = getelementptr inbounds nuw %"class.icu_77::CollationKey", ptr %3, i32 0, i32 3
  %12 = getelementptr inbounds nuw %struct.anon, ptr %11, i32 0, i32 0
  %13 = load ptr, ptr %12, align 8, !tbaa !20
  br label %14

14:                                               ; preds = %10, %7
  %15 = phi ptr [ %9, %7 ], [ %13, %10 ]
  ret ptr %15
}

; Function Attrs: mustprogress uwtable
define noundef ptr @_ZN6icu_7712CollationKey10reallocateEii(ptr noundef nonnull align 8 dereferenceable(48) %0, i32 noundef %1, i32 noundef %2) #3 align 2 {
  %4 = alloca ptr, align 8
  %5 = alloca ptr, align 8
  %6 = alloca i32, align 4
  %7 = alloca i32, align 4
  %8 = alloca ptr, align 8
  %9 = alloca i32, align 4
  store ptr %0, ptr %5, align 8, !tbaa !3
  store i32 %1, ptr %6, align 4, !tbaa !19
  store i32 %2, ptr %7, align 4, !tbaa !19
  %10 = load ptr, ptr %5, align 8
  call void @llvm.lifetime.start.p0(i64 8, ptr %8) #11
  %11 = load i32, ptr %6, align 4, !tbaa !19
  %12 = sext i32 %11 to i64
  %13 = call noalias ptr @uprv_malloc_77(i64 noundef %12) #12
  store ptr %13, ptr %8, align 8, !tbaa !17
  %14 = load ptr, ptr %8, align 8, !tbaa !17
  %15 = icmp eq ptr %14, null
  br i1 %15, label %16, label %17

16:                                               ; preds = %3
  store ptr null, ptr %4, align 8
  store i32 1, ptr %9, align 4
  br label %47

17:                                               ; preds = %3
  %18 = load i32, ptr %7, align 4, !tbaa !19
  %19 = icmp sgt i32 %18, 0
  br i1 %19, label %20, label %28

20:                                               ; preds = %17
  br label %21

21:                                               ; preds = %20
  %22 = load ptr, ptr %8, align 8, !tbaa !17
  %23 = call noundef ptr @_ZN6icu_7712CollationKey8getBytesEv(ptr noundef nonnull align 8 dereferenceable(48) %10)
  %24 = load i32, ptr %7, align 4, !tbaa !19
  %25 = sext i32 %24 to i64
  call void @llvm.memcpy.p0.p0.i64(ptr align 1 %22, ptr align 1 %23, i64 %25, i1 false)
  br label %26

26:                                               ; preds = %21
  br label %27

27:                                               ; preds = %26
  br label %28

28:                                               ; preds = %27, %17
  %29 = getelementptr inbounds nuw %"class.icu_77::CollationKey", ptr %10, i32 0, i32 1
  %30 = load i32, ptr %29, align 8, !tbaa !10
  %31 = icmp slt i32 %30, 0
  br i1 %31, label %32, label %36

32:                                               ; preds = %28
  %33 = getelementptr inbounds nuw %"class.icu_77::CollationKey", ptr %10, i32 0, i32 3
  %34 = getelementptr inbounds nuw %struct.anon, ptr %33, i32 0, i32 0
  %35 = load ptr, ptr %34, align 8, !tbaa !20
  call void @uprv_free_77(ptr noundef %35)
  br label %36

36:                                               ; preds = %32, %28
  %37 = load ptr, ptr %8, align 8, !tbaa !17
  %38 = getelementptr inbounds nuw %"class.icu_77::CollationKey", ptr %10, i32 0, i32 3
  %39 = getelementptr inbounds nuw %struct.anon, ptr %38, i32 0, i32 0
  store ptr %37, ptr %39, align 8, !tbaa !20
  %40 = load i32, ptr %6, align 4, !tbaa !19
  %41 = getelementptr inbounds nuw %"class.icu_77::CollationKey", ptr %10, i32 0, i32 3
  %42 = getelementptr inbounds nuw %struct.anon, ptr %41, i32 0, i32 1
  store i32 %40, ptr %42, align 8, !tbaa !20
  %43 = getelementptr inbounds nuw %"class.icu_77::CollationKey", ptr %10, i32 0, i32 1
  %44 = load i32, ptr %43, align 8, !tbaa !10
  %45 = or i32 %44, -2147483648
  store i32 %45, ptr %43, align 8, !tbaa !10
  %46 = load ptr, ptr %8, align 8, !tbaa !17
  store ptr %46, ptr %4, align 8
  store i32 1, ptr %9, align 4
  br label %47

47:                                               ; preds = %36, %16
  call void @llvm.lifetime.end.p0(i64 8, ptr %8) #11
  %48 = load ptr, ptr %4, align 8
  ret ptr %48
}

; Function Attrs: mustprogress nounwind uwtable
define linkonce_odr noundef i32 @_ZNK6icu_7712CollationKey11getCapacityEv(ptr noundef nonnull align 8 dereferenceable(48) %0) #0 comdat align 2 {
  %2 = alloca ptr, align 8
  store ptr %0, ptr %2, align 8, !tbaa !3
  %3 = load ptr, ptr %2, align 8
  %4 = getelementptr inbounds nuw %"class.icu_77::CollationKey", ptr %3, i32 0, i32 1
  %5 = load i32, ptr %4, align 8, !tbaa !10
  %6 = icmp sge i32 %5, 0
  br i1 %6, label %7, label %8

7:                                                ; preds = %1
  br label %12

8:                                                ; preds = %1
  %9 = getelementptr inbounds nuw %"class.icu_77::CollationKey", ptr %3, i32 0, i32 3
  %10 = getelementptr inbounds nuw %struct.anon, ptr %9, i32 0, i32 1
  %11 = load i32, ptr %10, align 8, !tbaa !20
  br label %12

12:                                               ; preds = %8, %7
  %13 = phi i32 [ 32, %7 ], [ %11, %8 ]
  ret i32 %13
}

; Function Attrs: mustprogress nounwind uwtable
define linkonce_odr noundef i32 @_ZNK6icu_7712CollationKey9getLengthEv(ptr noundef nonnull align 8 dereferenceable(48) %0) #0 comdat align 2 {
  %2 = alloca ptr, align 8
  store ptr %0, ptr %2, align 8, !tbaa !3
  %3 = load ptr, ptr %2, align 8
  %4 = getelementptr inbounds nuw %"class.icu_77::CollationKey", ptr %3, i32 0, i32 1
  %5 = load i32, ptr %4, align 8, !tbaa !10
  %6 = and i32 %5, 2147483647
  ret i32 %6
}

; Function Attrs: mustprogress nounwind uwtable
define noundef nonnull align 8 dereferenceable(48) ptr @_ZN6icu_7712CollationKey10setToBogusEv(ptr noundef nonnull align 8 dereferenceable(48) %0) #0 align 2 {
  %2 = alloca ptr, align 8
  store ptr %0, ptr %2, align 8, !tbaa !3
  %3 = load ptr, ptr %2, align 8
  %4 = getelementptr inbounds nuw %"class.icu_77::CollationKey", ptr %3, i32 0, i32 1
  %5 = load i32, ptr %4, align 8, !tbaa !10
  %6 = and i32 %5, -2147483648
  store i32 %6, ptr %4, align 8, !tbaa !10
  %7 = getelementptr inbounds nuw %"class.icu_77::CollationKey", ptr %3, i32 0, i32 2
  store i32 2, ptr %7, align 4, !tbaa !14
  ret ptr %3
}

; Function Attrs: inlinehint mustprogress nounwind uwtable
define linkonce_odr noundef signext i8 @_ZNK6icu_7712CollationKey7isBogusEv(ptr noundef nonnull align 8 dereferenceable(48) %0) #2 comdat align 2 {
  %2 = alloca ptr, align 8
  store ptr %0, ptr %2, align 8, !tbaa !3
  %3 = load ptr, ptr %2, align 8
  %4 = getelementptr inbounds nuw %"class.icu_77::CollationKey", ptr %3, i32 0, i32 2
  %5 = load i32, ptr %4, align 4, !tbaa !14
  %6 = icmp eq i32 %5, 2
  %7 = zext i1 %6 to i8
  ret i8 %7
}

; Function Attrs: mustprogress uwtable
define noundef nonnull align 8 dereferenceable(48) ptr @_ZN6icu_7712CollationKeyaSERKS0_(ptr noundef nonnull align 8 dereferenceable(48) %0, ptr noundef nonnull align 8 dereferenceable(48) %1) #3 align 2 {
  %3 = alloca ptr, align 8
  %4 = alloca ptr, align 8
  %5 = alloca ptr, align 8
  %6 = alloca i32, align 4
  %7 = alloca i32, align 4
  store ptr %0, ptr %4, align 8, !tbaa !3
  store ptr %1, ptr %5, align 8, !tbaa !3
  %8 = load ptr, ptr %4, align 8
  %9 = load ptr, ptr %5, align 8, !tbaa !3
  %10 = icmp ne ptr %8, %9
  br i1 %10, label %11, label %55

11:                                               ; preds = %2
  %12 = load ptr, ptr %5, align 8, !tbaa !3
  %13 = call noundef signext i8 @_ZNK6icu_7712CollationKey7isBogusEv(ptr noundef nonnull align 8 dereferenceable(48) %12)
  %14 = icmp ne i8 %13, 0
  br i1 %14, label %15, label %17

15:                                               ; preds = %11
  %16 = call noundef nonnull align 8 dereferenceable(48) ptr @_ZN6icu_7712CollationKey10setToBogusEv(ptr noundef nonnull align 8 dereferenceable(48) %8)
  store ptr %16, ptr %3, align 8
  br label %56

17:                                               ; preds = %11
  call void @llvm.lifetime.start.p0(i64 4, ptr %6) #11
  %18 = load ptr, ptr %5, align 8, !tbaa !3
  %19 = call noundef i32 @_ZNK6icu_7712CollationKey9getLengthEv(ptr noundef nonnull align 8 dereferenceable(48) %18)
  store i32 %19, ptr %6, align 4, !tbaa !19
  %20 = load i32, ptr %6, align 4, !tbaa !19
  %21 = call noundef i32 @_ZNK6icu_7712CollationKey11getCapacityEv(ptr noundef nonnull align 8 dereferenceable(48) %8)
  %22 = icmp sgt i32 %20, %21
  br i1 %22, label %23, label %29

23:                                               ; preds = %17
  %24 = load i32, ptr %6, align 4, !tbaa !19
  %25 = call noundef ptr @_ZN6icu_7712CollationKey10reallocateEii(ptr noundef nonnull align 8 dereferenceable(48) %8, i32 noundef %24, i32 noundef 0)
  %26 = icmp eq ptr %25, null
  br i1 %26, label %27, label %29

27:                                               ; preds = %23
  %28 = call noundef nonnull align 8 dereferenceable(48) ptr @_ZN6icu_7712CollationKey10setToBogusEv(ptr noundef nonnull align 8 dereferenceable(48) %8)
  store ptr %28, ptr %3, align 8
  store i32 1, ptr %7, align 4
  br label %52

29:                                               ; preds = %23, %17
  %30 = load i32, ptr %6, align 4, !tbaa !19
  %31 = icmp sgt i32 %30, 0
  br i1 %31, label %32, label %41

32:                                               ; preds = %29
  br label %33

33:                                               ; preds = %32
  %34 = call noundef ptr @_ZN6icu_7712CollationKey8getBytesEv(ptr noundef nonnull align 8 dereferenceable(48) %8)
  %35 = load ptr, ptr %5, align 8, !tbaa !3
  %36 = call noundef ptr @_ZNK6icu_7712CollationKey8getBytesEv(ptr noundef nonnull align 8 dereferenceable(48) %35)
  %37 = load i32, ptr %6, align 4, !tbaa !19
  %38 = sext i32 %37 to i64
  call void @llvm.memcpy.p0.p0.i64(ptr align 1 %34, ptr align 1 %36, i64 %38, i1 false)
  br label %39

39:                                               ; preds = %33
  br label %40

40:                                               ; preds = %39
  br label %41

41:                                               ; preds = %40, %29
  %42 = getelementptr inbounds nuw %"class.icu_77::CollationKey", ptr %8, i32 0, i32 1
  %43 = load i32, ptr %42, align 8, !tbaa !10
  %44 = and i32 %43, -2147483648
  %45 = load i32, ptr %6, align 4, !tbaa !19
  %46 = or i32 %44, %45
  %47 = getelementptr inbounds nuw %"class.icu_77::CollationKey", ptr %8, i32 0, i32 1
  store i32 %46, ptr %47, align 8, !tbaa !10
  %48 = load ptr, ptr %5, align 8, !tbaa !3
  %49 = getelementptr inbounds nuw %"class.icu_77::CollationKey", ptr %48, i32 0, i32 2
  %50 = load i32, ptr %49, align 4, !tbaa !14
  %51 = getelementptr inbounds nuw %"class.icu_77::CollationKey", ptr %8, i32 0, i32 2
  store i32 %50, ptr %51, align 4, !tbaa !14
  store i32 0, ptr %7, align 4
  br label %52

52:                                               ; preds = %41, %27
  call void @llvm.lifetime.end.p0(i64 4, ptr %6) #11
  %53 = load i32, ptr %7, align 4
  switch i32 %53, label %58 [
    i32 0, label %54
    i32 1, label %56
  ]

54:                                               ; preds = %52
  br label %55

55:                                               ; preds = %54, %2
  store ptr %8, ptr %3, align 8
  br label %56

56:                                               ; preds = %55, %52, %15
  %57 = load ptr, ptr %3, align 8
  ret ptr %57

58:                                               ; preds = %52
  unreachable
}