; Function Attrs: mustprogress uwtable
define noundef nonnull align 8 dereferenceable(48) ptr @_ZN6icu_7712CollationKeyaSERKS0_(ptr noundef nonnull returned align 8 dereferenceable(48) %0, ptr noundef nonnull readonly align 8 dereferenceable(48) %1) local_unnamed_addr #2 align 2 {
  %.not = icmp eq ptr %0, %1
  br i1 %.not, label %54, label %3

3:                                                ; preds = %2
  %4 = getelementptr inbounds nuw i8, ptr %1, i64 12
  %5 = load i32, ptr %4, align 4, !tbaa !11
  %.not20 = icmp eq i32 %5, 2
  br i1 %.not20, label %6, label %10

6:                                                ; preds = %3
  %7 = getelementptr inbounds nuw i8, ptr %0, i64 8
  %8 = load i32, ptr %7, align 8, !tbaa !6
  %9 = and i32 %8, -2147483648
  store i32 %9, ptr %7, align 8, !tbaa !6
  br label %.sink.split

10:                                               ; preds = %3
  %11 = getelementptr inbounds nuw i8, ptr %1, i64 8
  %12 = load i32, ptr %11, align 8, !tbaa !6
  %13 = and i32 %12, 2147483647
  %14 = getelementptr inbounds nuw i8, ptr %0, i64 8
  %15 = load i32, ptr %14, align 8, !tbaa !6
  %16 = icmp sgt i32 %15, -1
  %17 = getelementptr inbounds nuw i8, ptr %0, i64 24
  %18 = load i32, ptr %17, align 8
  %19 = select i1 %16, i32 32, i32 %18
  %20 = icmp sgt i32 %13, %19
  br i1 %20, label %21, label %34

21:                                               ; preds = %10
  %22 = zext nneg i32 %13 to i64
  %23 = tail call noalias ptr @uprv_malloc_77(i64 noundef %22) #15
  %24 = icmp eq ptr %23, null
  %25 = load i32, ptr %14, align 8, !tbaa !6
  br i1 %24, label %51, label %26

26:                                               ; preds = %21
  %27 = icmp slt i32 %25, 0
  br i1 %27, label %28, label %_ZN6icu_7712CollationKey10reallocateEii.exit

28:                                               ; preds = %26
  %29 = getelementptr inbounds nuw i8, ptr %0, i64 16
  %30 = load ptr, ptr %29, align 8, !tbaa !12
  tail call void @uprv_free_77(ptr noundef %30)
  %.pre11.i = load i32, ptr %14, align 8, !tbaa !6
  br label %_ZN6icu_7712CollationKey10reallocateEii.exit

_ZN6icu_7712CollationKey10reallocateEii.exit:     ; preds = %26, %28
  %31 = phi i32 [ %.pre11.i, %28 ], [ %25, %26 ]
  %32 = getelementptr inbounds nuw i8, ptr %0, i64 16
  store ptr %23, ptr %32, align 8, !tbaa !12
  store i32 %13, ptr %17, align 8, !tbaa !12
  %33 = or i32 %31, -2147483648
  store i32 %33, ptr %14, align 8, !tbaa !6
  br label %34

34:                                               ; preds = %_ZN6icu_7712CollationKey10reallocateEii.exit, %10
  %35 = phi i32 [ %33, %_ZN6icu_7712CollationKey10reallocateEii.exit ], [ %15, %10 ]
  %.not21 = icmp eq i32 %13, 0
  br i1 %.not21, label %.thread, label %36

36:                                               ; preds = %34
  %37 = getelementptr inbounds nuw i8, ptr %0, i64 16
  %38 = load ptr, ptr %37, align 8
  %39 = icmp slt i32 %35, 0
  %40 = select i1 %39, ptr %38, ptr %37
  %41 = load i32, ptr %11, align 8, !tbaa !6
  %42 = getelementptr inbounds nuw i8, ptr %1, i64 16
  %43 = load ptr, ptr %42, align 8
  %44 = icmp slt i32 %41, 0
  %45 = select i1 %44, ptr %43, ptr %42
  %46 = zext nneg i32 %13 to i64
  tail call void @llvm.memcpy.p0.p0.i64(ptr align 1 %40, ptr align 1 %45, i64 %46, i1 false)
  %.pre = load i32, ptr %14, align 8, !tbaa !6
  br label %.thread

.thread:                                          ; preds = %34, %36
  %47 = phi i32 [ %35, %34 ], [ %.pre, %36 ]
  %48 = and i32 %47, -2147483648
  %49 = or disjoint i32 %48, %13
  store i32 %49, ptr %14, align 8, !tbaa !6
  %50 = load i32, ptr %4, align 4, !tbaa !11
  br label %.sink.split

51:                                               ; preds = %21
  %52 = and i32 %25, -2147483648
  store i32 %52, ptr %14, align 8, !tbaa !6
  br label %.sink.split

.sink.split:                                      ; preds = %6, %51, %.thread
  %.sink = phi i32 [ %50, %.thread ], [ 2, %51 ], [ 2, %6 ]
  %53 = getelementptr inbounds nuw i8, ptr %0, i64 12
  store i32 %.sink, ptr %53, align 4, !tbaa !11
  br label %54

54:                                               ; preds = %.sink.split, %2
  ret ptr %0
}